; Function Attrs: mustprogress nounwind uwtable
define dso_local void @_ZN5clang6driver24OffloadBundlingJobActionC2ERN4llvm11SmallVectorIPNS0_6ActionELj3EEE(ptr noundef nonnull align 8 dereferenceable(88) %0, ptr noundef nonnull align 8 dereferenceable(40) %1) unnamed_addr #0 align 2 {
  %3 = load ptr, ptr %1, align 8
  %4 = tail call noundef i64 @_ZNK4llvm15SmallVectorBaseIjE4sizeEv(ptr noundef nonnull align 8 dereferenceable(16) %1) #11
  %5 = getelementptr inbounds ptr, ptr %3, i64 %4
  %6 = getelementptr inbounds i8, ptr %5, i64 -8
  %7 = load ptr, ptr %6, align 8
  %8 = getelementptr inbounds nuw i8, ptr %7, i64 12
  %9 = load i32, ptr %8, align 4
  store ptr getelementptr inbounds inrange(-16, 16) (i8, ptr @_ZTVN5clang6driver6ActionE, i64 16), ptr %0, align 8
  %10 = getelementptr inbounds nuw i8, ptr %0, i64 8
  store i32 17, ptr %10, align 8
  %11 = getelementptr inbounds nuw i8, ptr %0, i64 12
  store i32 %9, ptr %11, align 4
  %12 = getelementptr inbounds nuw i8, ptr %0, i64 16
  %13 = getelementptr inbounds i8, ptr %0, i64 32
  tail call void @_ZN4llvm15SmallVectorBaseIjEC2EPvm(ptr noundef nonnull align 8 dereferenceable(16) %12, ptr noundef nonnull %13, i64 noundef 3) #11
  %14 = tail call noundef zeroext i1 @_ZNK4llvm15SmallVectorBaseIjE5emptyEv(ptr noundef nonnull align 8 dereferenceable(16) %1) #11
  br i1 %14, label %_ZN5clang6driver9JobActionC2ENS0_6Action11ActionClassERKN4llvm11SmallVectorIPS2_Lj3EEENS0_5types2IDE.exit, label %15

15:                                               ; preds = %2
  %16 = tail call noundef nonnull align 8 dereferenceable(16) ptr @_ZN4llvm15SmallVectorImplIPN5clang6driver6ActionEEaSERKS5_(ptr noundef nonnull align 8 dereferenceable(16) %12, ptr noundef nonnull align 8 dereferenceable(16) %1)
  br label %_ZN5clang6driver9JobActionC2ENS0_6Action11ActionClassERKN4llvm11SmallVectorIPS2_Lj3EEENS0_5types2IDE.exit

_ZN5clang6driver9JobActionC2ENS0_6Action11ActionClassERKN4llvm11SmallVectorIPS2_Lj3EEENS0_5types2IDE.exit: ; preds = %2, %15
  %17 = getelementptr inbounds nuw i8, ptr %0, i64 56
  store i8 1, ptr %17, align 8
  %18 = getelementptr inbounds nuw i8, ptr %0, i64 60
  store i32 0, ptr %18, align 4
  %19 = getelementptr inbounds nuw i8, ptr %0, i64 64
  store i32 0, ptr %19, align 8
  %20 = getelementptr inbounds nuw i8, ptr %0, i64 72
  tail call void @llvm.memset.p0.i64(ptr noundef nonnull align 8 dereferenceable(16) %20, i8 0, i64 16, i1 false)
  store ptr getelementptr inbounds inrange(-16, 24) (i8, ptr @_ZTVN5clang6driver24OffloadBundlingJobActionE, i64 16), ptr %0, align 8
  ret void
}